target datalayout = "e-m:e-p270:32:32-p271:32:32-p272:64:64-i64:64-i128:128-f80:128-n8:16:32:64-S128"
target triple = "x86_64-unknown-linux-gnu"

%"class.icu_75::UMutex" = type { [40 x i8], %"struct.std::atomic", ptr }
%"struct.std::atomic" = type { %"struct.std::__atomic_base" }
%"struct.std::__atomic_base" = type { ptr }
%"class.icu_75::Hashtable" = type { ptr, %struct.UHashtable }
%struct.UHashtable = type { ptr, ptr, ptr, ptr, ptr, ptr, i32, i32, i32, i32, float, float, i8, i8 }
%"class.icu_75::UObject" = type { ptr }
%"class.icu_75::UnicodeString" = type { %"class.icu_75::Replaceable", %"union.icu_75::UnicodeString::StackBufferOrFields" }
%"class.icu_75::Replaceable" = type { %"class.icu_75::UObject" }
%"union.icu_75::UnicodeString::StackBufferOrFields" = type { %struct.anon.0, [32 x i8] }
%struct.anon.0 = type { i16, i32, i32, ptr }
%"class.icu_75::RuleBasedTransliterator" = type <{ %"class.icu_75::Transliterator.base", [4 x i8], ptr, i8, [7 x i8] }>
%"class.icu_75::Transliterator.base" = type <{ %"class.icu_75::UObject", %"class.icu_75::UnicodeString", ptr, i32 }>
%"class.icu_75::TransliterationRuleData" = type { [8 x i8], %"class.icu_75::TransliterationRuleSet", %"class.icu_75::Hashtable", ptr, i8, i16, i32 }
%"class.icu_75::TransliterationRuleSet" = type { ptr, ptr, ptr, [257 x i32], i32 }
%"class.icu_75::Mutex" = type { ptr }
%struct.UTransPosition = type { i32, i32, i32, i32 }

@_ZZNK6icu_7523RuleBasedTransliterator19handleTransliterateERNS_11ReplaceableER14UTransPositionaE23transliteratorDataMutex = internal global %"class.icu_75::UMutex" zeroinitializer, align 8
@_ZN6icu_75L11gLockedTextE = internal global ptr null, align 8

; Function Attrs: mustprogress nounwind uwtable
define linkonce_odr void @_ZN6icu_755MutexD2Ev(ptr noundef nonnull align 8 dereferenceable(8) %this) unnamed_addr #0 comdat align 2 personality ptr @__gxx_personality_v0 {
entry:
  %this.addr = alloca ptr, align 8
  store ptr %this, ptr %this.addr, align 8
  %this1 = load ptr, ptr %this.addr, align 8
  %fMutex = getelementptr inbounds %"class.icu_75::Mutex", ptr %this1, i32 0, i32 0
  %0 = load ptr, ptr %fMutex, align 8
  invoke void @umtx_unlock_75(ptr noundef %0)
          to label %invoke.cont unwind label %terminate.lpad

invoke.cont:                                      ; preds = %entry
  ret void

terminate.lpad:                                   ; preds = %entry
  %1 = landingpad { ptr, i32 }
          catch ptr null
  %2 = extractvalue { ptr, i32 } %1, 0
  call void @__clang_call_terminate(ptr %2) #6
  unreachable
}

; Function Attrs: mustprogress uwtable
define linkonce_odr void @_ZN6icu_755MutexC2EPNS_6UMutexE(ptr noundef nonnull align 8 dereferenceable(8) %this, ptr noundef %mutex) unnamed_addr #1 comdat align 2 {
entry:
  %this.addr = alloca ptr, align 8
  %mutex.addr = alloca ptr, align 8
  store ptr %this, ptr %this.addr, align 8
  store ptr %mutex, ptr %mutex.addr, align 8
  %this1 = load ptr, ptr %this.addr, align 8
  %fMutex = getelementptr inbounds %"class.icu_75::Mutex", ptr %this1, i32 0, i32 0
  %0 = load ptr, ptr %mutex.addr, align 8
  store ptr %0, ptr %fMutex, align 8
  %fMutex2 = getelementptr inbounds %"class.icu_75::Mutex", ptr %this1, i32 0, i32 0
  %1 = load ptr, ptr %fMutex2, align 8
  call void @umtx_lock_75(ptr noundef %1)
  ret void
}

; Function Attrs: mustprogress uwtable
define void @_ZNK6icu_7523RuleBasedTransliterator19handleTransliterateERNS_11ReplaceableER14UTransPositiona(ptr noundef nonnull align 8 dereferenceable(97) %this, ptr noundef nonnull align 8 dereferenceable(8) %text, ptr noundef nonnull align 4 dereferenceable(16) %index, i8 noundef signext %isIncremental) unnamed_addr #1 align 2 {
entry:
  %this.addr = alloca ptr, align 8
  %text.addr = alloca ptr, align 8
  %index.addr = alloca ptr, align 8
  %isIncremental.addr = alloca i8, align 1
  %loopCount = alloca i32, align 4
  %loopLimit = alloca i32, align 4
  %lockedMutexAtThisLevel = alloca i8, align 1
  %needToLock = alloca i8, align 1
  %m = alloca %"class.icu_75::Mutex", align 8
  %m4 = alloca %"class.icu_75::Mutex", align 8
  %m17 = alloca %"class.icu_75::Mutex", align 8
  store ptr %this, ptr %this.addr, align 8
  store ptr %text, ptr %text.addr, align 8
  store ptr %index, ptr %index.addr, align 8
  store i8 %isIncremental, ptr %isIncremental.addr, align 1
  %this1 = load ptr, ptr %this.addr, align 8
  store i32 0, ptr %loopCount, align 4
  %0 = load ptr, ptr %index.addr, align 8
  %limit = getelementptr inbounds %struct.UTransPosition, ptr %0, i32 0, i32 3
  %1 = load i32, ptr %limit, align 4
  %2 = load ptr, ptr %index.addr, align 8
  %start = getelementptr inbounds %struct.UTransPosition, ptr %2, i32 0, i32 2
  %3 = load i32, ptr %start, align 4
  %sub = sub nsw i32 %1, %3
  store i32 %sub, ptr %loopLimit, align 4
  %4 = load i32, ptr %loopLimit, align 4
  %cmp = icmp uge i32 %4, 268435456
  br i1 %cmp, label %if.then, label %if.else

if.then:                                          ; preds = %entry
  store i32 -1, ptr %loopLimit, align 4
  br label %if.end

if.else:                                          ; preds = %entry
  %5 = load i32, ptr %loopLimit, align 4
  %shl = shl i32 %5, 4
  store i32 %shl, ptr %loopLimit, align 4
  br label %if.end

if.end:                                           ; preds = %if.else, %if.then
  store i8 0, ptr %lockedMutexAtThisLevel, align 1
  call void @_ZN6icu_755MutexC2EPNS_6UMutexE(ptr noundef nonnull align 8 dereferenceable(8) %m, ptr noundef null)
  %6 = load ptr, ptr %text.addr, align 8
  %7 = load ptr, ptr @_ZN6icu_75L11gLockedTextE, align 8
  %cmp2 = icmp ne ptr %6, %7
  %conv = zext i1 %cmp2 to i8
  store i8 %conv, ptr %needToLock, align 1
  call void @_ZN6icu_755MutexD2Ev(ptr noundef nonnull align 8 dereferenceable(8) %m) #5
  %8 = load i8, ptr %needToLock, align 1
  %tobool = icmp ne i8 %8, 0
  br i1 %tobool, label %if.then3, label %if.end5

if.then3:                                         ; preds = %if.end
  call void @umtx_lock_75(ptr noundef @_ZZNK6icu_7523RuleBasedTransliterator19handleTransliterateERNS_11ReplaceableER14UTransPositionaE23transliteratorDataMutex)
  call void @_ZN6icu_755MutexC2EPNS_6UMutexE(ptr noundef nonnull align 8 dereferenceable(8) %m4, ptr noundef null)
  %9 = load ptr, ptr %text.addr, align 8
  store ptr %9, ptr @_ZN6icu_75L11gLockedTextE, align 8
  store i8 1, ptr %lockedMutexAtThisLevel, align 1
  call void @_ZN6icu_755MutexD2Ev(ptr noundef nonnull align 8 dereferenceable(8) %m4) #5
  br label %if.end5

if.end5:                                          ; preds = %if.then3, %if.end
  %fData = getelementptr inbounds %"class.icu_75::RuleBasedTransliterator", ptr %this1, i32 0, i32 2
  %10 = load ptr, ptr %fData, align 8
  %cmp6 = icmp ne ptr %10, null
  br i1 %cmp6, label %if.then7, label %if.end14

if.then7:                                         ; preds = %if.end5
  br label %while.cond

while.cond:                                       ; preds = %while.body, %if.then7
  %11 = load ptr, ptr %index.addr, align 8
  %start8 = getelementptr inbounds %struct.UTransPosition, ptr %11, i32 0, i32 2
  %12 = load i32, ptr %start8, align 4
  %13 = load ptr, ptr %index.addr, align 8
  %limit9 = getelementptr inbounds %struct.UTransPosition, ptr %13, i32 0, i32 3
  %14 = load i32, ptr %limit9, align 4
  %cmp10 = icmp slt i32 %12, %14
  br i1 %cmp10, label %land.lhs.true, label %land.end

land.lhs.true:                                    ; preds = %while.cond
  %15 = load i32, ptr %loopCount, align 4
  %16 = load i32, ptr %loopLimit, align 4
  %cmp11 = icmp ule i32 %15, %16
  br i1 %cmp11, label %land.rhs, label %land.end

land.rhs:                                         ; preds = %land.lhs.true
  %fData12 = getelementptr inbounds %"class.icu_75::RuleBasedTransliterator", ptr %this1, i32 0, i32 2
  %17 = load ptr, ptr %fData12, align 8
  %ruleSet = getelementptr inbounds %"class.icu_75::TransliterationRuleData", ptr %17, i32 0, i32 1
  %18 = load ptr, ptr %text.addr, align 8
  %19 = load ptr, ptr %index.addr, align 8
  %20 = load i8, ptr %isIncremental.addr, align 1
  %call = call noundef signext i8 @_ZN6icu_7522TransliterationRuleSet13transliterateERNS_11ReplaceableER14UTransPositiona(ptr noundef nonnull align 8 dereferenceable(1056) %ruleSet, ptr noundef nonnull align 8 dereferenceable(8) %18, ptr noundef nonnull align 4 dereferenceable(16) %19, i8 noundef signext %20)
  %tobool13 = icmp ne i8 %call, 0
  br label %land.end

land.end:                                         ; preds = %land.rhs, %land.lhs.true, %while.cond
  %21 = phi i1 [ false, %land.lhs.true ], [ false, %while.cond ], [ %tobool13, %land.rhs ]
  br i1 %21, label %while.body, label %while.end

while.body:                                       ; preds = %land.end
  %22 = load i32, ptr %loopCount, align 4
  %inc = add i32 %22, 1
  store i32 %inc, ptr %loopCount, align 4
  br label %while.cond, !llvm.loop !4

while.end:                                        ; preds = %land.end
  br label %if.end14

if.end14:                                         ; preds = %while.end, %if.end5
  %23 = load i8, ptr %lockedMutexAtThisLevel, align 1
  %tobool15 = icmp ne i8 %23, 0
  br i1 %tobool15, label %if.then16, label %if.end18

if.then16:                                        ; preds = %if.end14
  call void @_ZN6icu_755MutexC2EPNS_6UMutexE(ptr noundef nonnull align 8 dereferenceable(8) %m17, ptr noundef null)
  store ptr null, ptr @_ZN6icu_75L11gLockedTextE, align 8
  call void @_ZN6icu_755MutexD2Ev(ptr noundef nonnull align 8 dereferenceable(8) %m17) #5
  call void @umtx_unlock_75(ptr noundef @_ZZNK6icu_7523RuleBasedTransliterator19handleTransliterateERNS_11ReplaceableER14UTransPositionaE23transliteratorDataMutex)
  br label %if.end18

if.end18:                                         ; preds = %if.then16, %if.end14
  ret void
}