; Function Attrs: mustprogress uwtable
define void @_ZNK6icu_7523RuleBasedTransliterator19handleTransliterateERNS_11ReplaceableER14UTransPositiona(ptr nocapture noundef nonnull readonly align 8 dereferenceable(97) %this, ptr noundef nonnull align 8 dereferenceable(8) %text, ptr noundef nonnull align 4 dereferenceable(16) %index, i8 noundef signext %isIncremental) unnamed_addr #1 align 2 personality ptr @__gxx_personality_v0 {
entry:
  %limit = getelementptr inbounds i8, ptr %index, i64 12
  %0 = load i32, ptr %limit, align 4
  %start = getelementptr inbounds i8, ptr %index, i64 8
  %1 = load i32, ptr %start, align 4
  %sub = sub nsw i32 %0, %1
  %cmp = icmp ult i32 %sub, 268435456
  %shl = shl nuw i32 %sub, 4
  tail call void @umtx_lock_75(ptr noundef null)
  %2 = load ptr, ptr @_ZN6icu_75L11gLockedTextE, align 8
  %cmp2.not = icmp eq ptr %2, %text
  invoke void @umtx_unlock_75(ptr noundef null)
          to label %_ZN6icu_755MutexD2Ev.exit unwind label %terminate.lpad.i

terminate.lpad.i:                                 ; preds = %entry
  %3 = landingpad { ptr, i32 }
          catch ptr null
  %4 = extractvalue { ptr, i32 } %3, 0
  tail call void @__clang_call_terminate(ptr %4) #7
  unreachable

_ZN6icu_755MutexD2Ev.exit:                        ; preds = %entry
  br i1 %cmp2.not, label %if.end5, label %if.then3

if.then3:                                         ; preds = %_ZN6icu_755MutexD2Ev.exit
  tail call void @umtx_lock_75(ptr noundef nonnull @_ZZNK6icu_7523RuleBasedTransliterator19handleTransliterateERNS_11ReplaceableER14UTransPositionaE23transliteratorDataMutex)
  tail call void @umtx_lock_75(ptr noundef null)
  store ptr %text, ptr @_ZN6icu_75L11gLockedTextE, align 8
  invoke void @umtx_unlock_75(ptr noundef null)
          to label %if.end5 unwind label %terminate.lpad.i10

terminate.lpad.i10:                               ; preds = %if.then3
  %5 = landingpad { ptr, i32 }
          catch ptr null
  %6 = extractvalue { ptr, i32 } %5, 0
  tail call void @__clang_call_terminate(ptr %6) #7
  unreachable

if.end5:                                          ; preds = %if.then3, %_ZN6icu_755MutexD2Ev.exit
  %fData = getelementptr inbounds i8, ptr %this, i64 88
  %7 = load ptr, ptr %fData, align 8
  %cmp6.not = icmp eq ptr %7, null
  br i1 %cmp6.not, label %if.end14, label %while.cond.preheader

while.cond.preheader:                             ; preds = %if.end5
  %8 = load i32, ptr %start, align 4
  %9 = load i32, ptr %limit, align 4
  %cmp1015.not = icmp slt i32 %8, %9
  br i1 %cmp1015.not, label %land.rhs, label %if.end14

while.cond:                                       ; preds = %land.rhs
  %inc = add i32 %loopCount.016, 1
  %10 = load i32, ptr %start, align 4
  %11 = load i32, ptr %limit, align 4
  %cmp10 = icmp sge i32 %10, %11
  %cmp11.not14 = icmp ult i32 %shl, %inc
  %cmp11.not = select i1 %cmp, i1 %cmp11.not14, i1 false
  %or.cond = select i1 %cmp10, i1 true, i1 %cmp11.not
  br i1 %or.cond, label %if.end14, label %land.rhs, !llvm.loop !4

land.rhs:                                         ; preds = %while.cond.preheader, %while.cond
  %loopCount.016 = phi i32 [ %inc, %while.cond ], [ 0, %while.cond.preheader ]
  %12 = load ptr, ptr %fData, align 8
  %ruleSet = getelementptr inbounds i8, ptr %12, i64 8
  %call = tail call noundef signext i8 @_ZN6icu_7522TransliterationRuleSet13transliterateERNS_11ReplaceableER14UTransPositiona(ptr noundef nonnull align 8 dereferenceable(1056) %ruleSet, ptr noundef nonnull align 8 dereferenceable(8) %text, ptr noundef nonnull align 4 dereferenceable(16) %index, i8 noundef signext %isIncremental)
  %tobool13.not = icmp eq i8 %call, 0
  br i1 %tobool13.not, label %if.end14, label %while.cond

if.end14:                                         ; preds = %while.cond, %land.rhs, %while.cond.preheader, %if.end5
  br i1 %cmp2.not, label %if.end18, label %if.then16

if.then16:                                        ; preds = %if.end14
  tail call void @umtx_lock_75(ptr noundef null)
  store ptr null, ptr @_ZN6icu_75L11gLockedTextE, align 8
  invoke void @umtx_unlock_75(ptr noundef null)
          to label %_ZN6icu_755MutexD2Ev.exit13 unwind label %terminate.lpad.i12

terminate.lpad.i12:                               ; preds = %if.then16
  %13 = landingpad { ptr, i32 }
          catch ptr null
  %14 = extractvalue { ptr, i32 } %13, 0
  tail call void @__clang_call_terminate(ptr %14) #7
  unreachable

_ZN6icu_755MutexD2Ev.exit13:                      ; preds = %if.then16
  tail call void @umtx_unlock_75(ptr noundef nonnull @_ZZNK6icu_7523RuleBasedTransliterator19handleTransliterateERNS_11ReplaceableER14UTransPositionaE23transliteratorDataMutex)
  br label %if.end18

if.end18:                                         ; preds = %_ZN6icu_755MutexD2Ev.exit13, %if.end14
  ret void
}